; ModuleID = 'source-C-CXX/13/151.c'
source_filename = "source-C-CXX/13/151.c"
target datalayout = "e-m:e-p270:32:32-p271:32:32-p272:64:64-i64:64-f80:128-n8:16:32:64-S128"
target triple = "x86_64-pc-linux-gnu"

%struct.S = type { i32, i32, i32, i32 }

@.str = private unnamed_addr constant [3 x i8] c"%d\00", align 1
@.str.1 = private unnamed_addr constant [7 x i8] c"%d%d%d\00", align 1
@.str.2 = private unnamed_addr constant [7 x i8] c"%d %d\0A\00", align 1

; Function Attrs: mustprogress nofree norecurse nosync nounwind readonly sspstrong uwtable willreturn
define dso_local i32 @mycmp(i8* nocapture readonly %0, i8* nocapture readonly %1) #0 {
  %3 = getelementptr inbounds i8, i8* %1, i64 12
  %4 = bitcast i8* %3 to i32*
  %5 = load i32, i32* %4, align 4, !tbaa !5
  %6 = getelementptr inbounds i8, i8* %0, i64 12
  %7 = bitcast i8* %6 to i32*
  %8 = load i32, i32* %7, align 4, !tbaa !5
  %9 = sub nsw i32 %5, %8
  ret i32 %9
}

; Function Attrs: nofree nounwind sspstrong uwtable
define dso_local void @main() local_unnamed_addr #1 {
  %1 = alloca [100010 x %struct.S], align 16
  %2 = alloca i32, align 4
  %3 = bitcast [100010 x %struct.S]* %1 to i8*
  call void @llvm.lifetime.start.p0i8(i64 1600160, i8* nonnull %3) #5
  %4 = bitcast i32* %2 to i8*
  call void @llvm.lifetime.start.p0i8(i64 4, i8* nonnull %4) #5
  %5 = call i32 (i8*, ...) @__isoc99_scanf(i8* getelementptr inbounds ([3 x i8], [3 x i8]* @.str, i64 0, i64 0), i32* nonnull %2)
  %6 = load i32, i32* %2, align 4, !tbaa !10
  %7 = icmp sgt i32 %6, 0
  br i1 %7, label %8, label %22

8:                                                ; preds = %0, %8
  %9 = phi i64 [ %18, %8 ], [ 0, %0 ]
  %10 = getelementptr inbounds [100010 x %struct.S], [100010 x %struct.S]* %1, i64 0, i64 %9, i32 0
  %11 = getelementptr inbounds [100010 x %struct.S], [100010 x %struct.S]* %1, i64 0, i64 %9, i32 1
  %12 = getelementptr inbounds [100010 x %struct.S], [100010 x %struct.S]* %1, i64 0, i64 %9, i32 2
  %13 = call i32 (i8*, ...) @__isoc99_scanf(i8* getelementptr inbounds ([7 x i8], [7 x i8]* @.str.1, i64 0, i64 0), i32* nonnull %10, i32* nonnull %11, i32* nonnull %12)
  %14 = load i32, i32* %11, align 4, !tbaa !11
  %15 = load i32, i32* %12, align 8, !tbaa !12
  %16 = add nsw i32 %15, %14
  %17 = getelementptr inbounds [100010 x %struct.S], [100010 x %struct.S]* %1, i64 0, i64 %9, i32 3
  store i32 %16, i32* %17, align 4, !tbaa !5
  %18 = add nuw nsw i64 %9, 1
  %19 = load i32, i32* %2, align 4, !tbaa !10
  %20 = sext i32 %19 to i64
  %21 = icmp slt i64 %18, %20
  br i1 %21, label %8, label %22, !llvm.loop !13

22:                                               ; preds = %8, %0
  %23 = phi i32 [ %6, %0 ], [ %19, %8 ]
  %24 = sext i32 %23 to i64
  call void @qsort(i8* nonnull %3, i64 %24, i64 16, i32 (i8*, i8*)* nonnull @mycmp) #5
  %25 = getelementptr inbounds [100010 x %struct.S], [100010 x %struct.S]* %1, i64 0, i64 0, i32 0
  %26 = load i32, i32* %25, align 16, !tbaa !15
  %27 = getelementptr inbounds [100010 x %struct.S], [100010 x %struct.S]* %1, i64 0, i64 0, i32 3
  %28 = load i32, i32* %27, align 4, !tbaa !5
  %29 = call i32 (i8*, ...) @printf(i8* nonnull dereferenceable(1) getelementptr inbounds ([7 x i8], [7 x i8]* @.str.2, i64 0, i64 0), i32 %26, i32 %28)
  %30 = getelementptr inbounds [100010 x %struct.S], [100010 x %struct.S]* %1, i64 0, i64 1, i32 0
  %31 = load i32, i32* %30, align 16, !tbaa !15
  %32 = getelementptr inbounds [100010 x %struct.S], [100010 x %struct.S]* %1, i64 0, i64 1, i32 3
  %33 = load i32, i32* %32, align 4, !tbaa !5
  %34 = call i32 (i8*, ...) @printf(i8* nonnull dereferenceable(1) getelementptr inbounds ([7 x i8], [7 x i8]* @.str.2, i64 0, i64 0), i32 %31, i32 %33)
  %35 = getelementptr inbounds [100010 x %struct.S], [100010 x %struct.S]* %1, i64 0, i64 2, i32 0
  %36 = load i32, i32* %35, align 16, !tbaa !15
  %37 = getelementptr inbounds [100010 x %struct.S], [100010 x %struct.S]* %1, i64 0, i64 2, i32 3
  %38 = load i32, i32* %37, align 4, !tbaa !5
  %39 = call i32 (i8*, ...) @printf(i8* nonnull dereferenceable(1) getelementptr inbounds ([7 x i8], [7 x i8]* @.str.2, i64 0, i64 0), i32 %36, i32 %38)
  call void @llvm.lifetime.end.p0i8(i64 4, i8* nonnull %4) #5
  call void @llvm.lifetime.end.p0i8(i64 1600160, i8* nonnull %3) #5
  ret void
}

; Function Attrs: argmemonly mustprogress nofree nosync nounwind willreturn
declare void @llvm.lifetime.start.p0i8(i64 immarg, i8* nocapture) #2

; Function Attrs: nofree nounwind
declare noundef i32 @__isoc99_scanf(i8* nocapture noundef readonly, ...) local_unnamed_addr #3

; Function Attrs: nofree
declare void @qsort(i8* noundef, i64 noundef, i64 noundef, i32 (i8*, i8*)* nocapture noundef) local_unnamed_addr #4

; Function Attrs: nofree nounwind
declare noundef i32 @printf(i8* nocapture noundef readonly, ...) local_unnamed_addr #3

; Function Attrs: argmemonly mustprogress nofree nosync nounwind willreturn
declare void @llvm.lifetime.end.p0i8(i64 immarg, i8* nocapture) #2


!llvm.module.flags = !{!0, !1, !2, !3}
!llvm.ident = !{!4}

!0 = !{i32 1, !"wchar_size", i32 4}
!1 = !{i32 7, !"PIC Level", i32 2}
!2 = !{i32 7, !"PIE Level", i32 2}
!3 = !{i32 7, !"uwtable", i32 1}
!4 = !{!"clang version 13.0.0"}
!5 = !{!6, !7, i64 12}
!6 = !{!"S", !7, i64 0, !7, i64 4, !7, i64 8, !7, i64 12}
!7 = !{!"int", !8, i64 0}
!8 = !{!"omnipotent char", !9, i64 0}
!9 = !{!"Simple C/C++ TBAA"}
!10 = !{!7, !7, i64 0}
!11 = !{!6, !7, i64 4}
!12 = !{!6, !7, i64 8}
!13 = distinct !{!13, !14}
!14 = !{!"llvm.loop.mustprogress"}
!15 = !{!6, !7, i64 0}
